target datalayout = "e-m:e-p270:32:32-p271:32:32-p272:64:64-i64:64-i128:128-f80:128-n8:16:32:64-S128"
target triple = "x86_64-pc-linux-gnu"

%struct.ImVec2 = type { float, float }
%struct.ImVec4 = type { float, float, float, float }
%struct.ImFontAtlas = type <{ i32, [4 x i8], i64, i32, i32, ptr, i8, i8, i8, [5 x i8], ptr, ptr, i32, i32, %struct.ImVec2, %struct.ImVec2, %struct.ImVector.10, %struct.ImVector.11, %struct.ImVector.12, [33 x %struct.ImVec4], ptr, i32, i32, i32, [4 x i8] }>
%struct.ImVector.10 = type { i32, i32, ptr }
%struct.ImVector.11 = type { i32, i32, ptr }
%struct.ImVector.12 = type { i32, i32, ptr }

; Function Attrs: mustprogress nounwind uwtable
define void @_Z41ImFontAtlasBuildRender32bppRectFromStringP11ImFontAtlasiiiiPKccj(ptr noundef %0, i32 noundef %1, i32 noundef %2, i32 noundef %3, i32 noundef %4, ptr noundef %5, i8 noundef signext %6, i32 noundef %7) #3 {
  %9 = alloca ptr, align 8
  %10 = alloca i32, align 4
  %11 = alloca i32, align 4
  %12 = alloca i32, align 4
  %13 = alloca i32, align 4
  %14 = alloca ptr, align 8
  %15 = alloca i8, align 1
  %16 = alloca i32, align 4
  %17 = alloca ptr, align 8
  %18 = alloca i32, align 4
  %19 = alloca i32, align 4
  %20 = alloca i32, align 4
  store ptr %0, ptr %9, align 8, !tbaa !298
  store i32 %1, ptr %10, align 4, !tbaa !27
  store i32 %2, ptr %11, align 4, !tbaa !27
  store i32 %3, ptr %12, align 4, !tbaa !27
  store i32 %4, ptr %13, align 4, !tbaa !27
  store ptr %5, ptr %14, align 8, !tbaa !186
  store i8 %6, ptr %15, align 1, !tbaa !41
  store i32 %7, ptr %16, align 4, !tbaa !27
  call void @llvm.lifetime.start.p0(i64 8, ptr %17) #17
  %21 = load ptr, ptr %9, align 8, !tbaa !298
  %22 = getelementptr inbounds nuw %struct.ImFontAtlas, ptr %21, i32 0, i32 11
  %23 = load ptr, ptr %22, align 8, !tbaa !331
  %24 = load i32, ptr %10, align 4, !tbaa !27
  %25 = sext i32 %24 to i64
  %26 = getelementptr inbounds i32, ptr %23, i64 %25
  %27 = load i32, ptr %11, align 4, !tbaa !27
  %28 = load ptr, ptr %9, align 8, !tbaa !298
  %29 = getelementptr inbounds nuw %struct.ImFontAtlas, ptr %28, i32 0, i32 12
  %30 = load i32, ptr %29, align 8, !tbaa !337
  %31 = mul nsw i32 %27, %30
  %32 = sext i32 %31 to i64
  %33 = getelementptr inbounds i32, ptr %26, i64 %32
  store ptr %33, ptr %17, align 8, !tbaa !244
  call void @llvm.lifetime.start.p0(i64 4, ptr %18) #17
  store i32 0, ptr %18, align 4, !tbaa !27
  br label %34

34:                                               ; preds = %68, %8
  %35 = load i32, ptr %18, align 4, !tbaa !27
  %36 = load i32, ptr %13, align 4, !tbaa !27
  %37 = icmp slt i32 %35, %36
  br i1 %37, label %39, label %38

38:                                               ; preds = %34
  store i32 2, ptr %19, align 4
  call void @llvm.lifetime.end.p0(i64 4, ptr %18) #17
  br label %81

39:                                               ; preds = %34
  call void @llvm.lifetime.start.p0(i64 4, ptr %20) #17
  store i32 0, ptr %20, align 4, !tbaa !27
  br label %40

40:                                               ; preds = %64, %39
  %41 = load i32, ptr %20, align 4, !tbaa !27
  %42 = load i32, ptr %12, align 4, !tbaa !27
  %43 = icmp slt i32 %41, %42
  br i1 %43, label %45, label %44

44:                                               ; preds = %40
  store i32 5, ptr %19, align 4
  call void @llvm.lifetime.end.p0(i64 4, ptr %20) #17
  br label %67

45:                                               ; preds = %40
  %46 = load ptr, ptr %14, align 8, !tbaa !186
  %47 = load i32, ptr %20, align 4, !tbaa !27
  %48 = sext i32 %47 to i64
  %49 = getelementptr inbounds i8, ptr %46, i64 %48
  %50 = load i8, ptr %49, align 1, !tbaa !41
  %51 = sext i8 %50 to i32
  %52 = load i8, ptr %15, align 1, !tbaa !41
  %53 = sext i8 %52 to i32
  %54 = icmp eq i32 %51, %53
  br i1 %54, label %55, label %57

55:                                               ; preds = %45
  %56 = load i32, ptr %16, align 4, !tbaa !27
  br label %58

57:                                               ; preds = %45
  br label %58

58:                                               ; preds = %57, %55
  %59 = phi i32 [ %56, %55 ], [ 0, %57 ]
  %60 = load ptr, ptr %17, align 8, !tbaa !244
  %61 = load i32, ptr %20, align 4, !tbaa !27
  %62 = sext i32 %61 to i64
  %63 = getelementptr inbounds i32, ptr %60, i64 %62
  store i32 %59, ptr %63, align 4, !tbaa !27
  br label %64

64:                                               ; preds = %58
  %65 = load i32, ptr %20, align 4, !tbaa !27
  %66 = add nsw i32 %65, 1
  store i32 %66, ptr %20, align 4, !tbaa !27
  br label %40, !llvm.loop !481

67:                                               ; preds = %44
  br label %68

68:                                               ; preds = %67
  %69 = load i32, ptr %18, align 4, !tbaa !27
  %70 = add nsw i32 %69, 1
  store i32 %70, ptr %18, align 4, !tbaa !27
  %71 = load ptr, ptr %9, align 8, !tbaa !298
  %72 = getelementptr inbounds nuw %struct.ImFontAtlas, ptr %71, i32 0, i32 12
  %73 = load i32, ptr %72, align 8, !tbaa !337
  %74 = load ptr, ptr %17, align 8, !tbaa !244
  %75 = sext i32 %73 to i64
  %76 = getelementptr inbounds i32, ptr %74, i64 %75
  store ptr %76, ptr %17, align 8, !tbaa !244
  %77 = load i32, ptr %12, align 4, !tbaa !27
  %78 = load ptr, ptr %14, align 8, !tbaa !186
  %79 = sext i32 %77 to i64
  %80 = getelementptr inbounds i8, ptr %78, i64 %79
  store ptr %80, ptr %14, align 8, !tbaa !186
  br label %34, !llvm.loop !482

81:                                               ; preds = %38
  call void @llvm.lifetime.end.p0(i64 8, ptr %17) #17
  ret void
}