; Function Attrs: mustprogress nofree norecurse nosync nounwind memory(write, argmem: readwrite, inaccessiblemem: none) uwtable
define void @_Z41ImFontAtlasBuildRender32bppRectFromStringP11ImFontAtlasiiiiPKccj(ptr noundef readonly captures(none) %0, i32 noundef %1, i32 noundef %2, i32 noundef %3, i32 noundef %4, ptr noundef readonly captures(none) %5, i8 noundef signext %6, i32 noundef %7) local_unnamed_addr #23 {
  %9 = getelementptr inbounds nuw i8, ptr %0, i64 56
  %10 = icmp sgt i32 %4, 0
  br i1 %10, label %.preheader.lr.ph, label %._crit_edge27

.preheader.lr.ph:                                 ; preds = %8
  %11 = icmp sgt i32 %3, 0
  %12 = sext i32 %3 to i64
  br i1 %11, label %.preheader.us.preheader, label %._crit_edge27

.preheader.us.preheader:                          ; preds = %.preheader.lr.ph
  %13 = getelementptr inbounds nuw i8, ptr %0, i64 48
  %14 = load ptr, ptr %13, align 8, !tbaa !256
  %15 = sext i32 %1 to i64
  %16 = getelementptr inbounds i32, ptr %14, i64 %15
  %17 = load i32, ptr %9, align 8, !tbaa !283
  %18 = mul nsw i32 %17, %2
  %19 = sext i32 %18 to i64
  %20 = getelementptr inbounds i32, ptr %16, i64 %19
  %wide.trip.count = zext nneg i32 %3 to i64
  br label %.preheader.us

.preheader.us:                                    ; preds = %.preheader.us.preheader, %._crit_edge.us
  %.01926.us = phi i32 [ %27, %._crit_edge.us ], [ 0, %.preheader.us.preheader ]
  %.02025.us = phi ptr [ %30, %._crit_edge.us ], [ %20, %.preheader.us.preheader ]
  %.02124.us = phi ptr [ %31, %._crit_edge.us ], [ %5, %.preheader.us.preheader ]
  br label %21

21:                                               ; preds = %.preheader.us, %21
  %indvars.iv = phi i64 [ 0, %.preheader.us ], [ %indvars.iv.next, %21 ]
  %22 = getelementptr inbounds nuw i8, ptr %.02124.us, i64 %indvars.iv
  %23 = load i8, ptr %22, align 1, !tbaa !23
  %24 = icmp eq i8 %23, %6
  %25 = select i1 %24, i32 %7, i32 0
  %26 = getelementptr inbounds nuw i32, ptr %.02025.us, i64 %indvars.iv
  store i32 %25, ptr %26, align 4, !tbaa !19
  %indvars.iv.next = add nuw nsw i64 %indvars.iv, 1
  %exitcond.not = icmp eq i64 %indvars.iv.next, %wide.trip.count
  br i1 %exitcond.not, label %._crit_edge.us, label %21, !llvm.loop !538

._crit_edge.us:                                   ; preds = %21
  %27 = add nuw nsw i32 %.01926.us, 1
  %28 = load i32, ptr %9, align 8, !tbaa !283
  %29 = sext i32 %28 to i64
  %30 = getelementptr inbounds i32, ptr %.02025.us, i64 %29
  %31 = getelementptr inbounds nuw i8, ptr %.02124.us, i64 %12
  %exitcond30.not = icmp eq i32 %27, %4
  br i1 %exitcond30.not, label %._crit_edge27, label %.preheader.us, !llvm.loop !539

._crit_edge27:                                    ; preds = %._crit_edge.us, %.preheader.lr.ph, %8
  ret void
}